; Function Attrs: mustprogress uwtable
define hidden noundef zeroext i1 @_ZN4cvc58internal6theory11quantifiers8DetTrace9incrementENS0_12NodeTemplateILb1EEERSt6vectorIS5_SaIS5_EE(ptr noundef nonnull align 8 dereferenceable(72) %0, ptr noundef readonly captures(none) %1, ptr noundef nonnull readonly align 8 captures(none) dereferenceable(24) %2) local_unnamed_addr #3 align 2 personality ptr @__gxx_personality_v0 {
  %4 = alloca %"class.cvc5::internal::NodeTemplate", align 8
  %5 = getelementptr inbounds nuw i8, ptr %0, i64 24
  %6 = load ptr, ptr %1, align 8, !tbaa !15
  store ptr %6, ptr %4, align 8, !tbaa !15
  %7 = load i64, ptr %6, align 8
  %8 = lshr i64 %7, 40
  %9 = trunc nuw nsw i64 %8 to i32
  %10 = and i32 %9, 1048575
  %11 = icmp samesign ult i32 %10, 1048574
  br i1 %11, label %12, label %17, !prof !38

12:                                               ; preds = %3
  %13 = add i64 %7, 1099511627776
  %14 = and i64 %13, 1152920405095219200
  %15 = and i64 %7, -1152920405095219201
  %16 = or disjoint i64 %14, %15
  store i64 %16, ptr %6, align 8
  br label %_ZN4cvc58internal12NodeTemplateILb1EEC2ERKS2_.exit

17:                                               ; preds = %3
  %18 = icmp eq i32 %10, 1048574
  br i1 %18, label %19, label %_ZN4cvc58internal12NodeTemplateILb1EEC2ERKS2_.exit, !prof !39

19:                                               ; preds = %17
  %20 = or i64 %7, 1152920405095219200
  store i64 %20, ptr %6, align 8
  tail call void @_ZN4cvc58internal4expr9NodeValue20markRefCountMaxedOutEv(ptr noundef nonnull align 8 dereferenceable(24) %6)
  br label %_ZN4cvc58internal12NodeTemplateILb1EEC2ERKS2_.exit

_ZN4cvc58internal12NodeTemplateILb1EEC2ERKS2_.exit: ; preds = %12, %17, %19
  %21 = invoke noundef zeroext i1 @_ZN4cvc58internal6theory11quantifiers8DetTrace12DetTraceTrie3addENS0_12NodeTemplateILb1EEERKSt6vectorIS6_SaIS6_EE(ptr noundef nonnull align 8 dereferenceable(48) %5, ptr noundef nonnull %4, ptr noundef nonnull align 8 dereferenceable(24) %2)
          to label %22 unwind label %45

22:                                               ; preds = %_ZN4cvc58internal12NodeTemplateILb1EEC2ERKS2_.exit
  %23 = load ptr, ptr %4, align 8, !tbaa !15
  %24 = load i64, ptr %23, align 8
  %25 = and i64 %24, 1152920405095219200
  %.not.i.i = icmp eq i64 %25, 1152920405095219200
  br i1 %.not.i.i, label %_ZN4cvc58internal12NodeTemplateILb1EED2Ev.exit, label %26, !prof !39

26:                                               ; preds = %22
  %27 = add i64 %24, 1152920405095219200
  %28 = and i64 %27, 1152920405095219200
  %29 = and i64 %24, -1152920405095219201
  %30 = or disjoint i64 %28, %29
  store i64 %30, ptr %23, align 8
  %31 = icmp eq i64 %28, 0
  br i1 %31, label %32, label %_ZN4cvc58internal12NodeTemplateILb1EED2Ev.exit, !prof !39

32:                                               ; preds = %26
  invoke void @_ZN4cvc58internal4expr9NodeValue15markForDeletionEv(ptr noundef nonnull align 8 dereferenceable(24) %23)
          to label %_ZN4cvc58internal12NodeTemplateILb1EED2Ev.exit unwind label %33

33:                                               ; preds = %32
  %34 = landingpad { ptr, i32 }
          catch ptr null
  %35 = extractvalue { ptr, i32 } %34, 0
  call void @__clang_call_terminate(ptr %35) #24
  unreachable

_ZN4cvc58internal12NodeTemplateILb1EED2Ev.exit:   ; preds = %22, %26, %32
  br i1 %21, label %36, label %.loopexit

36:                                               ; preds = %_ZN4cvc58internal12NodeTemplateILb1EED2Ev.exit
  %37 = getelementptr inbounds nuw i8, ptr %2, i64 8
  %38 = load ptr, ptr %37, align 8, !tbaa !23
  %39 = load ptr, ptr %2, align 8, !tbaa !25
  %40 = ptrtoint ptr %38 to i64
  %41 = ptrtoint ptr %39 to i64
  %42 = sub i64 %40, %41
  %43 = and i64 %42, 34359738360
  %.not = icmp eq i64 %43, 0
  br i1 %.not, label %.loopexit, label %.lr.ph.preheader

.lr.ph.preheader:                                 ; preds = %36
  %44 = lshr exact i64 %42, 3
  %wide.trip.count = and i64 %44, 4294967295
  br label %.lr.ph

45:                                               ; preds = %_ZN4cvc58internal12NodeTemplateILb1EEC2ERKS2_.exit
  %46 = landingpad { ptr, i32 }
          cleanup
  call void @_ZN4cvc58internal12NodeTemplateILb1EED2Ev(ptr noundef nonnull align 8 dereferenceable(8) %4) #23
  resume { ptr, i32 } %46

.lr.ph:                                           ; preds = %.lr.ph.preheader, %_ZN4cvc58internal12NodeTemplateILb1EEaSERKS2_.exit
  %indvars.iv = phi i64 [ 0, %.lr.ph.preheader ], [ %indvars.iv.next, %_ZN4cvc58internal12NodeTemplateILb1EEaSERKS2_.exit ]
  %47 = load ptr, ptr %2, align 8, !tbaa !25
  %48 = getelementptr inbounds nuw %"class.cvc5::internal::NodeTemplate", ptr %47, i64 %indvars.iv
  %49 = load ptr, ptr %0, align 8, !tbaa !25
  %50 = getelementptr inbounds nuw %"class.cvc5::internal::NodeTemplate", ptr %49, i64 %indvars.iv
  %51 = load ptr, ptr %50, align 8, !tbaa !15
  %52 = load ptr, ptr %48, align 8, !tbaa !15
  %.not.i = icmp eq ptr %51, %52
  br i1 %.not.i, label %_ZN4cvc58internal12NodeTemplateILb1EEaSERKS2_.exit, label %53, !prof !39

53:                                               ; preds = %.lr.ph
  %54 = load i64, ptr %51, align 8
  %55 = and i64 %54, 1152920405095219200
  %.not.i.i12 = icmp eq i64 %55, 1152920405095219200
  br i1 %.not.i.i12, label %_ZN4cvc58internal4expr9NodeValue3decEv.exit.i, label %56, !prof !39

56:                                               ; preds = %53
  %57 = add i64 %54, 1152920405095219200
  %58 = and i64 %57, 1152920405095219200
  %59 = and i64 %54, -1152920405095219201
  %60 = or disjoint i64 %58, %59
  store i64 %60, ptr %51, align 8
  %61 = icmp eq i64 %58, 0
  br i1 %61, label %62, label %_ZN4cvc58internal4expr9NodeValue3decEv.exit.i, !prof !39

62:                                               ; preds = %56
  call void @_ZN4cvc58internal4expr9NodeValue15markForDeletionEv(ptr noundef nonnull align 8 dereferenceable(24) %51)
  br label %_ZN4cvc58internal4expr9NodeValue3decEv.exit.i

_ZN4cvc58internal4expr9NodeValue3decEv.exit.i:    ; preds = %62, %56, %53
  %63 = load ptr, ptr %48, align 8, !tbaa !15
  store ptr %63, ptr %50, align 8, !tbaa !15
  %64 = load i64, ptr %63, align 8
  %65 = lshr i64 %64, 40
  %66 = trunc nuw nsw i64 %65 to i32
  %67 = and i32 %66, 1048575
  %68 = icmp samesign ult i32 %67, 1048574
  br i1 %68, label %69, label %74, !prof !38

69:                                               ; preds = %_ZN4cvc58internal4expr9NodeValue3decEv.exit.i
  %70 = add i64 %64, 1099511627776
  %71 = and i64 %70, 1152920405095219200
  %72 = and i64 %64, -1152920405095219201
  %73 = or disjoint i64 %71, %72
  store i64 %73, ptr %63, align 8
  br label %_ZN4cvc58internal12NodeTemplateILb1EEaSERKS2_.exit

74:                                               ; preds = %_ZN4cvc58internal4expr9NodeValue3decEv.exit.i
  %75 = icmp eq i32 %67, 1048574
  br i1 %75, label %76, label %_ZN4cvc58internal12NodeTemplateILb1EEaSERKS2_.exit, !prof !39

76:                                               ; preds = %74
  %77 = or i64 %64, 1152920405095219200
  store i64 %77, ptr %63, align 8
  call void @_ZN4cvc58internal4expr9NodeValue20markRefCountMaxedOutEv(ptr noundef nonnull align 8 dereferenceable(24) %63)
  br label %_ZN4cvc58internal12NodeTemplateILb1EEaSERKS2_.exit

_ZN4cvc58internal12NodeTemplateILb1EEaSERKS2_.exit: ; preds = %.lr.ph, %69, %74, %76
  %indvars.iv.next = add nuw nsw i64 %indvars.iv, 1
  %exitcond.not = icmp eq i64 %indvars.iv.next, %wide.trip.count
  br i1 %exitcond.not, label %.loopexit, label %.lr.ph, !llvm.loop !48

.loopexit:                                        ; preds = %_ZN4cvc58internal12NodeTemplateILb1EEaSERKS2_.exit, %36, %_ZN4cvc58internal12NodeTemplateILb1EED2Ev.exit
  ret i1 %21
}